; Function Attrs: mustprogress uwtable
define hidden void @_ZN2cv16SunRasterDecoderC2Ev(ptr noundef nonnull align 8 dereferenceable(1480) %0) unnamed_addr #3 align 2 personality ptr @__gxx_personality_v0 {
  tail call void @_ZN2cv16BaseImageDecoderC2Ev(ptr noundef nonnull align 8 dereferenceable(368) %0)
  store ptr getelementptr inbounds nuw inrange(-16, 104) (i8, ptr @_ZTVN2cv16SunRasterDecoderE, i64 16), ptr %0, align 8, !tbaa !3
  %2 = getelementptr inbounds nuw i8, ptr %0, i64 368
  invoke void @_ZN2cv11RBaseStreamC2Ev(ptr noundef nonnull align 8 dereferenceable(57) %2)
          to label %3 unwind label %14

3:                                                ; preds = %1
  store ptr getelementptr inbounds nuw inrange(-16, 64) (i8, ptr @_ZTVN2cv12RMByteStreamE, i64 16), ptr %2, align 8, !tbaa !3
  %4 = getelementptr inbounds nuw i8, ptr %0, i64 1460
  store i32 -1, ptr %4, align 4, !tbaa !6
  %5 = getelementptr inbounds nuw i8, ptr %0, i64 56
  %6 = getelementptr inbounds nuw i8, ptr %0, i64 64
  %7 = load i64, ptr %6, align 8, !tbaa !58
  %8 = invoke noundef nonnull align 8 dereferenceable(32) ptr @_ZNSt7__cxx1112basic_stringIcSt11char_traitsIcESaIcEE10_M_replaceEmmPKcm(ptr noundef nonnull align 8 dereferenceable(32) %5, i64 noundef 0, i64 noundef %7, ptr noundef nonnull @.str.4, i64 noundef 4)
          to label %_ZNSt7__cxx1112basic_stringIcSt11char_traitsIcESaIcEEaSEPKc.exit unwind label %16

_ZNSt7__cxx1112basic_stringIcSt11char_traitsIcESaIcEEaSEPKc.exit: ; preds = %3
  %9 = getelementptr inbounds nuw i8, ptr %0, i64 1456
  store i32 0, ptr %9, align 8, !tbaa !59
  %10 = getelementptr inbounds nuw i8, ptr %0, i64 1464
  store i32 1, ptr %10, align 8, !tbaa !60
  %11 = getelementptr inbounds nuw i8, ptr %0, i64 1468
  store i32 0, ptr %11, align 4, !tbaa !61
  %12 = getelementptr inbounds nuw i8, ptr %0, i64 1472
  store i32 0, ptr %12, align 8, !tbaa !62
  %13 = getelementptr inbounds nuw i8, ptr %0, i64 184
  store i8 1, ptr %13, align 8, !tbaa !63
  ret void

14:                                               ; preds = %1
  %15 = landingpad { ptr, i32 }
          cleanup
  br label %18

16:                                               ; preds = %3
  %17 = landingpad { ptr, i32 }
          cleanup
  tail call void @_ZN2cv12RMByteStreamD1Ev(ptr noundef nonnull align 8 dereferenceable(57) %2) #16
  br label %18

18:                                               ; preds = %16, %14
  %.pn = phi { ptr, i32 } [ %17, %16 ], [ %15, %14 ]
  tail call void @_ZN2cv16BaseImageDecoderD2Ev(ptr noundef nonnull align 8 dereferenceable(368) %0) #16
  resume { ptr, i32 } %.pn
}